target datalayout = "e-m:e-p270:32:32-p271:32:32-p272:64:64-i64:64-i128:128-f80:128-n8:16:32:64-S128"
target triple = "x86_64-pc-linux-gnu"

%struct.VectorscopeContext = type { ptr, i32, i32, float, [4 x i16], [2 x float], [4 x i32], [4 x i32], i32, i32, i32, i32, i32, i32, i32, i32, i32, i32, i32, float, float, float, float, [2 x i32], i32, i32, i32, i32, i32, ptr, ptr, ptr, ptr }
%struct.AVChannelLayout = type { i32, i32, %union.anon.1, ptr }
%union.anon.1 = type { i64 }
%struct.AVRational = type { i32, i32 }
%struct.AVFrame = type { [8 x ptr], [8 x i32], ptr, i32, i32, i32, i32, i32, %struct.AVRational, i64, i64, %struct.AVRational, i32, ptr, i32, i32, [8 x ptr], ptr, i32, ptr, i32, i32, i32, i32, i32, i32, i32, i64, ptr, i32, ptr, ptr, i64, i64, i64, i64, ptr, %struct.AVChannelLayout, i64 }

; Function Attrs: nounwind uwtable
define internal void @envelope_instant(ptr noundef %0, ptr noundef %1) #1 {
  %3 = alloca ptr, align 8
  %4 = alloca ptr, align 8
  %5 = alloca i32, align 4
  %6 = alloca ptr, align 8
  %7 = alloca i32, align 4
  %8 = alloca i32, align 4
  %9 = alloca i32, align 4
  %10 = alloca i32, align 4
  %11 = alloca i32, align 4
  store ptr %0, ptr %3, align 8, !tbaa !22
  store ptr %1, ptr %4, align 8, !tbaa !60
  call void @llvm.lifetime.start.p0(i64 4, ptr %5) #11
  %12 = load ptr, ptr %4, align 8, !tbaa !60
  %13 = getelementptr inbounds nuw %struct.AVFrame, ptr %12, i32 0, i32 1
  %14 = getelementptr inbounds [8 x i32], ptr %13, i64 0, i64 0
  %15 = load i32, ptr %14, align 8, !tbaa !47
  store i32 %15, ptr %5, align 4, !tbaa !47
  call void @llvm.lifetime.start.p0(i64 8, ptr %6) #11
  %16 = load ptr, ptr %3, align 8, !tbaa !22
  %17 = getelementptr inbounds nuw %struct.VectorscopeContext, ptr %16, i32 0, i32 1
  %18 = load i32, ptr %17, align 8, !tbaa !91
  %19 = icmp eq i32 %18, 1
  br i1 %19, label %25, label %20

20:                                               ; preds = %2
  %21 = load ptr, ptr %3, align 8, !tbaa !22
  %22 = getelementptr inbounds nuw %struct.VectorscopeContext, ptr %21, i32 0, i32 13
  %23 = load i32, ptr %22, align 8, !tbaa !85
  %24 = icmp ne i32 %23, 0
  br i1 %24, label %34, label %25

25:                                               ; preds = %20, %2
  %26 = load ptr, ptr %4, align 8, !tbaa !60
  %27 = getelementptr inbounds nuw %struct.AVFrame, ptr %26, i32 0, i32 0
  %28 = load ptr, ptr %3, align 8, !tbaa !22
  %29 = getelementptr inbounds nuw %struct.VectorscopeContext, ptr %28, i32 0, i32 12
  %30 = load i32, ptr %29, align 4, !tbaa !80
  %31 = sext i32 %30 to i64
  %32 = getelementptr inbounds [8 x ptr], ptr %27, i64 0, i64 %31
  %33 = load ptr, ptr %32, align 8, !tbaa !82
  br label %39

34:                                               ; preds = %20
  %35 = load ptr, ptr %4, align 8, !tbaa !60
  %36 = getelementptr inbounds nuw %struct.AVFrame, ptr %35, i32 0, i32 0
  %37 = getelementptr inbounds [8 x ptr], ptr %36, i64 0, i64 0
  %38 = load ptr, ptr %37, align 8, !tbaa !82
  br label %39

39:                                               ; preds = %34, %25
  %40 = phi ptr [ %33, %25 ], [ %38, %34 ]
  store ptr %40, ptr %6, align 8, !tbaa !82
  call void @llvm.lifetime.start.p0(i64 4, ptr %7) #11
  call void @llvm.lifetime.start.p0(i64 4, ptr %8) #11
  store i32 0, ptr %7, align 4, !tbaa !47
  br label %41

41:                                               ; preds = %139, %39
  %42 = load i32, ptr %7, align 4, !tbaa !47
  %43 = load ptr, ptr %4, align 8, !tbaa !60
  %44 = getelementptr inbounds nuw %struct.AVFrame, ptr %43, i32 0, i32 4
  %45 = load i32, ptr %44, align 4, !tbaa !98
  %46 = icmp slt i32 %42, %45
  br i1 %46, label %47, label %142

47:                                               ; preds = %41
  store i32 0, ptr %8, align 4, !tbaa !47
  br label %48

48:                                               ; preds = %135, %47
  %49 = load i32, ptr %8, align 4, !tbaa !47
  %50 = load ptr, ptr %4, align 8, !tbaa !60
  %51 = getelementptr inbounds nuw %struct.AVFrame, ptr %50, i32 0, i32 3
  %52 = load i32, ptr %51, align 8, !tbaa !99
  %53 = icmp slt i32 %49, %52
  br i1 %53, label %54, label %138

54:                                               ; preds = %48
  call void @llvm.lifetime.start.p0(i64 4, ptr %9) #11
  %55 = load i32, ptr %7, align 4, !tbaa !47
  %56 = load i32, ptr %5, align 4, !tbaa !47
  %57 = mul nsw i32 %55, %56
  %58 = load i32, ptr %8, align 4, !tbaa !47
  %59 = add nsw i32 %57, %58
  store i32 %59, ptr %9, align 4, !tbaa !47
  call void @llvm.lifetime.start.p0(i64 4, ptr %10) #11
  %60 = load i32, ptr %7, align 4, !tbaa !47
  %61 = sub nsw i32 %60, 1
  %62 = load i32, ptr %5, align 4, !tbaa !47
  %63 = mul nsw i32 %61, %62
  %64 = load i32, ptr %8, align 4, !tbaa !47
  %65 = add nsw i32 %63, %64
  store i32 %65, ptr %10, align 4, !tbaa !47
  call void @llvm.lifetime.start.p0(i64 4, ptr %11) #11
  %66 = load i32, ptr %7, align 4, !tbaa !47
  %67 = add nsw i32 %66, 1
  %68 = load i32, ptr %5, align 4, !tbaa !47
  %69 = mul nsw i32 %67, %68
  %70 = load i32, ptr %8, align 4, !tbaa !47
  %71 = add nsw i32 %69, %70
  store i32 %71, ptr %11, align 4, !tbaa !47
  %72 = load ptr, ptr %6, align 8, !tbaa !82
  %73 = load i32, ptr %9, align 4, !tbaa !47
  %74 = sext i32 %73 to i64
  %75 = getelementptr inbounds i8, ptr %72, i64 %74
  %76 = load i8, ptr %75, align 1, !tbaa !102
  %77 = zext i8 %76 to i32
  %78 = icmp ne i32 %77, 0
  br i1 %78, label %79, label %134

79:                                               ; preds = %54
  %80 = load i32, ptr %8, align 4, !tbaa !47
  %81 = icmp ne i32 %80, 0
  br i1 %81, label %82, label %129

82:                                               ; preds = %79
  %83 = load ptr, ptr %6, align 8, !tbaa !82
  %84 = load i32, ptr %9, align 4, !tbaa !47
  %85 = sub nsw i32 %84, 1
  %86 = sext i32 %85 to i64
  %87 = getelementptr inbounds i8, ptr %83, i64 %86
  %88 = load i8, ptr %87, align 1, !tbaa !102
  %89 = icmp ne i8 %88, 0
  br i1 %89, label %90, label %129

90:                                               ; preds = %82
  %91 = load i32, ptr %8, align 4, !tbaa !47
  %92 = load ptr, ptr %4, align 8, !tbaa !60
  %93 = getelementptr inbounds nuw %struct.AVFrame, ptr %92, i32 0, i32 3
  %94 = load i32, ptr %93, align 8, !tbaa !99
  %95 = sub nsw i32 %94, 1
  %96 = icmp eq i32 %91, %95
  br i1 %96, label %129, label %97

97:                                               ; preds = %90
  %98 = load ptr, ptr %6, align 8, !tbaa !82
  %99 = load i32, ptr %9, align 4, !tbaa !47
  %100 = add nsw i32 %99, 1
  %101 = sext i32 %100 to i64
  %102 = getelementptr inbounds i8, ptr %98, i64 %101
  %103 = load i8, ptr %102, align 1, !tbaa !102
  %104 = icmp ne i8 %103, 0
  br i1 %104, label %105, label %129

105:                                              ; preds = %97
  %106 = load i32, ptr %7, align 4, !tbaa !47
  %107 = icmp ne i32 %106, 0
  br i1 %107, label %108, label %129

108:                                              ; preds = %105
  %109 = load ptr, ptr %6, align 8, !tbaa !82
  %110 = load i32, ptr %10, align 4, !tbaa !47
  %111 = sext i32 %110 to i64
  %112 = getelementptr inbounds i8, ptr %109, i64 %111
  %113 = load i8, ptr %112, align 1, !tbaa !102
  %114 = icmp ne i8 %113, 0
  br i1 %114, label %115, label %129

115:                                              ; preds = %108
  %116 = load i32, ptr %7, align 4, !tbaa !47
  %117 = load ptr, ptr %4, align 8, !tbaa !60
  %118 = getelementptr inbounds nuw %struct.AVFrame, ptr %117, i32 0, i32 4
  %119 = load i32, ptr %118, align 4, !tbaa !98
  %120 = sub nsw i32 %119, 1
  %121 = icmp eq i32 %116, %120
  br i1 %121, label %129, label %122

122:                                              ; preds = %115
  %123 = load ptr, ptr %6, align 8, !tbaa !82
  %124 = load i32, ptr %11, align 4, !tbaa !47
  %125 = sext i32 %124 to i64
  %126 = getelementptr inbounds i8, ptr %123, i64 %125
  %127 = load i8, ptr %126, align 1, !tbaa !102
  %128 = icmp ne i8 %127, 0
  br i1 %128, label %134, label %129

129:                                              ; preds = %122, %115, %108, %105, %97, %90, %82, %79
  %130 = load ptr, ptr %6, align 8, !tbaa !82
  %131 = load i32, ptr %9, align 4, !tbaa !47
  %132 = sext i32 %131 to i64
  %133 = getelementptr inbounds i8, ptr %130, i64 %132
  store i8 -1, ptr %133, align 1, !tbaa !102
  br label %134

134:                                              ; preds = %129, %122, %54
  call void @llvm.lifetime.end.p0(i64 4, ptr %11) #11
  call void @llvm.lifetime.end.p0(i64 4, ptr %10) #11
  call void @llvm.lifetime.end.p0(i64 4, ptr %9) #11
  br label %135

135:                                              ; preds = %134
  %136 = load i32, ptr %8, align 4, !tbaa !47
  %137 = add nsw i32 %136, 1
  store i32 %137, ptr %8, align 4, !tbaa !47
  br label %48, !llvm.loop !165

138:                                              ; preds = %48
  br label %139

139:                                              ; preds = %138
  %140 = load i32, ptr %7, align 4, !tbaa !47
  %141 = add nsw i32 %140, 1
  store i32 %141, ptr %7, align 4, !tbaa !47
  br label %41, !llvm.loop !166

142:                                              ; preds = %41
  call void @llvm.lifetime.end.p0(i64 4, ptr %8) #11
  call void @llvm.lifetime.end.p0(i64 4, ptr %7) #11
  call void @llvm.lifetime.end.p0(i64 8, ptr %6) #11
  call void @llvm.lifetime.end.p0(i64 4, ptr %5) #11
  ret void
}