; Function Attrs: nofree norecurse nosync nounwind memory(readwrite, inaccessiblemem: none) uwtable
define internal fastcc void @envelope_instant(ptr noundef readonly captures(none) %0, ptr noundef readonly captures(none) %1) unnamed_addr #5 {
  %3 = getelementptr inbounds nuw i8, ptr %1, i64 64
  %4 = load i32, ptr %3, align 8, !tbaa !44
  %5 = getelementptr inbounds nuw i8, ptr %0, i64 8
  %6 = load i32, ptr %5, align 8, !tbaa !84
  %7 = icmp eq i32 %6, 1
  br i1 %7, label %11, label %8

8:                                                ; preds = %2
  %9 = getelementptr inbounds nuw i8, ptr %0, i64 88
  %10 = load i32, ptr %9, align 8, !tbaa !78
  %.not = icmp eq i32 %10, 0
  br i1 %.not, label %11, label %16

11:                                               ; preds = %8, %2
  %12 = getelementptr inbounds nuw i8, ptr %0, i64 84
  %13 = load i32, ptr %12, align 4, !tbaa !73
  %14 = sext i32 %13 to i64
  %15 = getelementptr inbounds [8 x ptr], ptr %1, i64 0, i64 %14
  br label %16

16:                                               ; preds = %8, %11
  %.in = phi ptr [ %15, %11 ], [ %1, %8 ]
  %17 = load ptr, ptr %.in, align 8, !tbaa !75
  %18 = getelementptr inbounds nuw i8, ptr %1, i64 108
  %19 = load i32, ptr %18, align 4, !tbaa !90
  %20 = icmp sgt i32 %19, 0
  br i1 %20, label %.preheader.lr.ph, label %._crit_edge52

.preheader.lr.ph:                                 ; preds = %16
  %21 = getelementptr inbounds nuw i8, ptr %1, i64 104
  %22 = load i32, ptr %21, align 8, !tbaa !91
  %23 = icmp sgt i32 %22, 0
  br i1 %23, label %.preheader.preheader, label %._crit_edge52

.preheader.preheader:                             ; preds = %.preheader.lr.ph
  %24 = sext i32 %4 to i64
  br label %.preheader

.preheader:                                       ; preds = %.preheader.preheader, %._crit_edge
  %25 = phi i32 [ %22, %.preheader.preheader ], [ %71, %._crit_edge ]
  %26 = phi i32 [ %22, %.preheader.preheader ], [ %72, %._crit_edge ]
  %27 = phi i32 [ %22, %.preheader.preheader ], [ %73, %._crit_edge ]
  %indvars.iv61 = phi i64 [ 0, %.preheader.preheader ], [ %29, %._crit_edge ]
  %28 = icmp sgt i32 %27, 0
  %29 = add nuw nsw i64 %indvars.iv61, 1
  br i1 %28, label %.lr.ph, label %._crit_edge

.lr.ph:                                           ; preds = %.preheader
  %.not53 = icmp eq i64 %indvars.iv61, 0
  br i1 %.not53, label %.lr.ph.split.us, label %.lr.ph.split.preheader

.lr.ph.split.preheader:                           ; preds = %.lr.ph
  %30 = mul nsw i64 %29, %24
  %31 = add nsw i64 %indvars.iv61, -1
  %32 = mul nsw i64 %31, %24
  %33 = mul nsw i64 %indvars.iv61, %24
  %invariant.gep = getelementptr i8, ptr %17, i64 %33
  %invariant.gep69 = getelementptr i8, ptr %17, i64 %32
  %invariant.gep71 = getelementptr i8, ptr %17, i64 %30
  br label %.lr.ph.split

.lr.ph.split.us:                                  ; preds = %.lr.ph, %38
  %34 = phi i32 [ %39, %38 ], [ %25, %.lr.ph ]
  %indvars.iv58 = phi i64 [ %indvars.iv.next59, %38 ], [ 0, %.lr.ph ]
  %35 = getelementptr inbounds nuw i8, ptr %17, i64 %indvars.iv58
  %36 = load i8, ptr %35, align 1, !tbaa !94
  %.not41.us = icmp eq i8 %36, 0
  br i1 %.not41.us, label %38, label %37

37:                                               ; preds = %.lr.ph.split.us
  store i8 -1, ptr %35, align 1, !tbaa !94
  %.pre64 = load i32, ptr %21, align 8, !tbaa !91
  br label %38

38:                                               ; preds = %37, %.lr.ph.split.us
  %39 = phi i32 [ %.pre64, %37 ], [ %34, %.lr.ph.split.us ]
  %indvars.iv.next59 = add nuw nsw i64 %indvars.iv58, 1
  %40 = sext i32 %39 to i64
  %41 = icmp slt i64 %indvars.iv.next59, %40
  br i1 %41, label %.lr.ph.split.us, label %._crit_edge, !llvm.loop !181

.lr.ph.split:                                     ; preds = %.lr.ph.split.preheader, %66
  %42 = phi i32 [ %25, %.lr.ph.split.preheader ], [ %67, %66 ]
  %43 = phi i32 [ %26, %.lr.ph.split.preheader ], [ %68, %66 ]
  %indvars.iv = phi i64 [ 0, %.lr.ph.split.preheader ], [ %indvars.iv.next, %66 ]
  %44 = phi i32 [ %27, %.lr.ph.split.preheader ], [ %68, %66 ]
  %gep = getelementptr i8, ptr %invariant.gep, i64 %indvars.iv
  %45 = load i8, ptr %gep, align 1, !tbaa !94
  %.not41 = icmp eq i8 %45, 0
  br i1 %.not41, label %66, label %46

46:                                               ; preds = %.lr.ph.split
  %.not42 = icmp eq i64 %indvars.iv, 0
  br i1 %.not42, label %65, label %47

47:                                               ; preds = %46
  %48 = getelementptr i8, ptr %gep, i64 -1
  %49 = load i8, ptr %48, align 1, !tbaa !94
  %.not43 = icmp eq i8 %49, 0
  %50 = add nsw i32 %44, -1
  %51 = zext i32 %50 to i64
  %52 = icmp eq i64 %indvars.iv, %51
  %or.cond47 = select i1 %.not43, i1 true, i1 %52
  br i1 %or.cond47, label %65, label %53

53:                                               ; preds = %47
  %54 = getelementptr i8, ptr %gep, i64 1
  %55 = load i8, ptr %54, align 1, !tbaa !94
  %.not54 = icmp eq i8 %55, 0
  br i1 %.not54, label %65, label %56

56:                                               ; preds = %53
  %gep70 = getelementptr i8, ptr %invariant.gep69, i64 %indvars.iv
  %57 = load i8, ptr %gep70, align 1, !tbaa !94
  %.not44 = icmp eq i8 %57, 0
  br i1 %.not44, label %65, label %58

58:                                               ; preds = %56
  %59 = load i32, ptr %18, align 4, !tbaa !90
  %60 = add nsw i32 %59, -1
  %61 = zext i32 %60 to i64
  %62 = icmp eq i64 %indvars.iv61, %61
  br i1 %62, label %65, label %63

63:                                               ; preds = %58
  %gep72 = getelementptr i8, ptr %invariant.gep71, i64 %indvars.iv
  %64 = load i8, ptr %gep72, align 1, !tbaa !94
  %.not45 = icmp eq i8 %64, 0
  br i1 %.not45, label %65, label %66

65:                                               ; preds = %63, %58, %56, %53, %47, %46
  store i8 -1, ptr %gep, align 1, !tbaa !94
  %.pre = load i32, ptr %21, align 8, !tbaa !91
  br label %66

66:                                               ; preds = %65, %63, %.lr.ph.split
  %67 = phi i32 [ %.pre, %65 ], [ %42, %63 ], [ %42, %.lr.ph.split ]
  %68 = phi i32 [ %.pre, %65 ], [ %43, %63 ], [ %43, %.lr.ph.split ]
  %indvars.iv.next = add nuw nsw i64 %indvars.iv, 1
  %69 = sext i32 %68 to i64
  %70 = icmp slt i64 %indvars.iv.next, %69
  br i1 %70, label %.lr.ph.split, label %._crit_edge, !llvm.loop !181

._crit_edge:                                      ; preds = %66, %38, %.preheader
  %71 = phi i32 [ %25, %.preheader ], [ %39, %38 ], [ %67, %66 ]
  %72 = phi i32 [ %26, %.preheader ], [ %39, %38 ], [ %68, %66 ]
  %73 = phi i32 [ %27, %.preheader ], [ %39, %38 ], [ %68, %66 ]
  %74 = load i32, ptr %18, align 4, !tbaa !90
  %75 = sext i32 %74 to i64
  %76 = icmp slt i64 %29, %75
  br i1 %76, label %.preheader, label %._crit_edge52, !llvm.loop !182

._crit_edge52:                                    ; preds = %._crit_edge, %.preheader.lr.ph, %16
  ret void
}